; ModuleID = '6/2445.c'
source_filename = "6/2445.c"
target datalayout = "e-m:e-p270:32:32-p271:32:32-p272:64:64-i64:64-f80:128-n8:16:32:64-S128"
target triple = "x86_64-pc-linux-gnu"

@.str = private unnamed_addr constant [4 x i8] c"%d\0A\00", align 1
@.str.1 = private unnamed_addr constant [7 x i8] c"%d %d\0A\00", align 1
@.str.2 = private unnamed_addr constant [3 x i8] c"%d\00", align 1

; Function Attrs: noinline nounwind uwtable
define dso_local i32 @main() #0 {
  %1 = alloca i32, align 4
  %2 = alloca i32, align 4
  %3 = alloca i32, align 4
  %4 = alloca i32, align 4
  %5 = alloca i32, align 4
  %6 = alloca [10000 x i32], align 16
  %7 = alloca i32*, align 8
  %8 = alloca i32, align 4
  %9 = alloca i32, align 4
  %10 = alloca i32, align 4
  store i32 0, i32* %1, align 4
  store i32 0, i32* %9, align 4
  %11 = call i32 (i8*, ...) @__isoc99_scanf(i8* getelementptr inbounds ([4 x i8], [4 x i8]* @.str, i64 0, i64 0), i32* %2)
  %12 = getelementptr inbounds [10000 x i32], [10000 x i32]* %6, i64 0, i64 0
  store i32* %12, i32** %7, align 8
  store i32 1, i32* %10, align 4
  br label %13

13:                                               ; preds = %122, %0
  %14 = load i32, i32* %10, align 4
  %15 = load i32, i32* %2, align 4
  %16 = icmp sle i32 %14, %15
  br i1 %16, label %17, label %125

17:                                               ; preds = %13
  %18 = call i32 (i8*, ...) @__isoc99_scanf(i8* getelementptr inbounds ([7 x i8], [7 x i8]* @.str.1, i64 0, i64 0), i32* %4, i32* %5)
  store i32 0, i32* %3, align 4
  br label %19

19:                                               ; preds = %27, %17
  %20 = load i32, i32* %3, align 4
  %21 = icmp slt i32 %20, 10000
  br i1 %21, label %22, label %30

22:                                               ; preds = %19
  %23 = load i32*, i32** %7, align 8
  %24 = load i32, i32* %3, align 4
  %25 = sext i32 %24 to i64
  %26 = getelementptr inbounds i32, i32* %23, i64 %25
  store i32 0, i32* %26, align 4
  br label %27

27:                                               ; preds = %22
  %28 = load i32, i32* %3, align 4
  %29 = add nsw i32 %28, 1
  store i32 %29, i32* %3, align 4
  br label %19

30:                                               ; preds = %19
  store i32 0, i32* %3, align 4
  br label %31

31:                                               ; preds = %43, %30
  %32 = load i32, i32* %3, align 4
  %33 = load i32, i32* %4, align 4
  %34 = load i32, i32* %5, align 4
  %35 = mul nsw i32 %33, %34
  %36 = icmp slt i32 %32, %35
  br i1 %36, label %37, label %46

37:                                               ; preds = %31
  %38 = load i32*, i32** %7, align 8
  %39 = load i32, i32* %3, align 4
  %40 = sext i32 %39 to i64
  %41 = getelementptr inbounds i32, i32* %38, i64 %40
  %42 = call i32 (i8*, ...) @__isoc99_scanf(i8* getelementptr inbounds ([3 x i8], [3 x i8]* @.str.2, i64 0, i64 0), i32* %41)
  br label %43

43:                                               ; preds = %37
  %44 = load i32, i32* %3, align 4
  %45 = add nsw i32 %44, 1
  store i32 %45, i32* %3, align 4
  br label %31

46:                                               ; preds = %31
  store i32 0, i32* %3, align 4
  br label %47

47:                                               ; preds = %59, %46
  %48 = load i32, i32* %3, align 4
  %49 = load i32, i32* %5, align 4
  %50 = icmp slt i32 %48, %49
  br i1 %50, label %51, label %62

51:                                               ; preds = %47
  %52 = load i32, i32* %9, align 4
  %53 = load i32*, i32** %7, align 8
  %54 = load i32, i32* %3, align 4
  %55 = sext i32 %54 to i64
  %56 = getelementptr inbounds i32, i32* %53, i64 %55
  %57 = load i32, i32* %56, align 4
  %58 = add nsw i32 %52, %57
  store i32 %58, i32* %9, align 4
  br label %59

59:                                               ; preds = %51
  %60 = load i32, i32* %3, align 4
  %61 = add nsw i32 %60, 1
  store i32 %61, i32* %3, align 4
  br label %47

62:                                               ; preds = %47
  store i32 1, i32* %8, align 4
  br label %63

63:                                               ; preds = %90, %62
  %64 = load i32, i32* %8, align 4
  %65 = load i32, i32* %4, align 4
  %66 = sub nsw i32 %65, 1
  %67 = icmp slt i32 %64, %66
  br i1 %67, label %68, label %93

68:                                               ; preds = %63
  %69 = load i32, i32* %9, align 4
  %70 = load i32*, i32** %7, align 8
  %71 = load i32, i32* %5, align 4
  %72 = load i32, i32* %8, align 4
  %73 = mul nsw i32 %71, %72
  %74 = sext i32 %73 to i64
  %75 = getelementptr inbounds i32, i32* %70, i64 %74
  %76 = load i32, i32* %75, align 4
  %77 = add nsw i32 %69, %76
  %78 = load i32*, i32** %7, align 8
  %79 = load i32, i32* %5, align 4
  %80 = load i32, i32* %8, align 4
  %81 = mul nsw i32 %79, %80
  %82 = sext i32 %81 to i64
  %83 = getelementptr inbounds i32, i32* %78, i64 %82
  %84 = load i32, i32* %5, align 4
  %85 = sext i32 %84 to i64
  %86 = getelementptr inbounds i32, i32* %83, i64 %85
  %87 = getelementptr inbounds i32, i32* %86, i64 -1
  %88 = load i32, i32* %87, align 4
  %89 = add nsw i32 %77, %88
  store i32 %89, i32* %9, align 4
  br label %90

90:                                               ; preds = %68
  %91 = load i32, i32* %8, align 4
  %92 = add nsw i32 %91, 1
  store i32 %92, i32* %8, align 4
  br label %63

93:                                               ; preds = %63
  %94 = load i32, i32* %4, align 4
  %95 = icmp ne i32 %94, 1
  br i1 %95, label %96, label %119

96:                                               ; preds = %93
  store i32 0, i32* %3, align 4
  br label %97

97:                                               ; preds = %115, %96
  %98 = load i32, i32* %3, align 4
  %99 = load i32, i32* %5, align 4
  %100 = icmp slt i32 %98, %99
  br i1 %100, label %101, label %118

101:                                              ; preds = %97
  %102 = load i32, i32* %9, align 4
  %103 = load i32*, i32** %7, align 8
  %104 = load i32, i32* %4, align 4
  %105 = sub nsw i32 %104, 1
  %106 = load i32, i32* %5, align 4
  %107 = mul nsw i32 %105, %106
  %108 = sext i32 %107 to i64
  %109 = getelementptr inbounds i32, i32* %103, i64 %108
  %110 = load i32, i32* %3, align 4
  %111 = sext i32 %110 to i64
  %112 = getelementptr inbounds i32, i32* %109, i64 %111
  %113 = load i32, i32* %112, align 4
  %114 = add nsw i32 %102, %113
  store i32 %114, i32* %9, align 4
  br label %115

115:                                              ; preds = %101
  %116 = load i32, i32* %3, align 4
  %117 = add nsw i32 %116, 1
  store i32 %117, i32* %3, align 4
  br label %97

118:                                              ; preds = %97
  br label %119

119:                                              ; preds = %118, %93
  %120 = load i32, i32* %9, align 4
  %121 = call i32 (i8*, ...) @printf(i8* getelementptr inbounds ([4 x i8], [4 x i8]* @.str, i64 0, i64 0), i32 %120)
  store i32 0, i32* %9, align 4
  br label %122

122:                                              ; preds = %119
  %123 = load i32, i32* %10, align 4
  %124 = add nsw i32 %123, 1
  store i32 %124, i32* %10, align 4
  br label %13

125:                                              ; preds = %13
  %126 = load i32, i32* %1, align 4
  ret i32 %126
}

declare dso_local i32 @__isoc99_scanf(i8*, ...) #1

declare dso_local i32 @printf(i8*, ...) #1


!llvm.module.flags = !{!0}
!llvm.ident = !{!1}

!0 = !{i32 1, !"wchar_size", i32 4}
!1 = !{!"clang version 10.0.0-4ubuntu1 "}
