; ModuleID = 'source-C-CXX/5/2445.c'
source_filename = "source-C-CXX/5/2445.c"
target datalayout = "e-m:e-p270:32:32-p271:32:32-p272:64:64-i64:64-f80:128-n8:16:32:64-S128"
target triple = "x86_64-pc-linux-gnu"

@.str = private unnamed_addr constant [4 x i8] c"%d\0A\00", align 1
@.str.1 = private unnamed_addr constant [7 x i8] c"%d %d\0A\00", align 1
@.str.2 = private unnamed_addr constant [3 x i8] c"%d\00", align 1

; Function Attrs: nofree nounwind sspstrong uwtable
define dso_local i32 @main() local_unnamed_addr #0 {
  %1 = alloca i32, align 4
  %2 = alloca i32, align 4
  %3 = alloca i32, align 4
  %4 = alloca [10000 x i32], align 16
  %5 = bitcast [10000 x i32]* %4 to i8*
  %6 = bitcast i32* %1 to i8*
  call void @llvm.lifetime.start.p0i8(i64 4, i8* nonnull %6) #5
  %7 = bitcast i32* %2 to i8*
  call void @llvm.lifetime.start.p0i8(i64 4, i8* nonnull %7) #5
  %8 = bitcast i32* %3 to i8*
  call void @llvm.lifetime.start.p0i8(i64 4, i8* nonnull %8) #5
  call void @llvm.lifetime.start.p0i8(i64 40000, i8* nonnull %5) #5
  %9 = call i32 (i8*, ...) @__isoc99_scanf(i8* getelementptr inbounds ([4 x i8], [4 x i8]* @.str, i64 0, i64 0), i32* nonnull %1)
  %10 = load i32, i32* %1, align 4, !tbaa !5
  %11 = icmp slt i32 %10, 1
  br i1 %11, label %308, label %12

12:                                               ; preds = %0, %302
  %13 = phi i32 [ %305, %302 ], [ 1, %0 ]
  %14 = call i32 (i8*, ...) @__isoc99_scanf(i8* getelementptr inbounds ([7 x i8], [7 x i8]* @.str.1, i64 0, i64 0), i32* nonnull %2, i32* nonnull %3)
  call void @llvm.memset.p0i8.i64(i8* noundef nonnull align 16 dereferenceable(40000) %5, i8 0, i64 40000, i1 false)
  %15 = load i32, i32* %2, align 4, !tbaa !5
  %16 = load i32, i32* %3, align 4, !tbaa !5
  %17 = mul nsw i32 %16, %15
  %18 = icmp sgt i32 %17, 0
  br i1 %18, label %110, label %19

19:                                               ; preds = %110, %12
  %20 = phi i32 [ %15, %12 ], [ %115, %110 ]
  %21 = phi i32 [ %16, %12 ], [ %116, %110 ]
  %22 = icmp sgt i32 %21, 0
  br i1 %22, label %23, label %120

23:                                               ; preds = %19
  %24 = zext i32 %21 to i64
  %25 = icmp ult i32 %21, 8
  br i1 %25, label %107, label %26

26:                                               ; preds = %23
  %27 = and i64 %24, 4294967288
  %28 = add nsw i64 %27, -8
  %29 = lshr exact i64 %28, 3
  %30 = add nuw nsw i64 %29, 1
  %31 = and i64 %30, 3
  %32 = icmp ult i64 %28, 24
  br i1 %32, label %78, label %33

33:                                               ; preds = %26
  %34 = and i64 %30, 4611686018427387900
  br label %35

35:                                               ; preds = %35, %33
  %36 = phi i64 [ 0, %33 ], [ %75, %35 ]
  %37 = phi <4 x i32> [ zeroinitializer, %33 ], [ %73, %35 ]
  %38 = phi <4 x i32> [ zeroinitializer, %33 ], [ %74, %35 ]
  %39 = phi i64 [ %34, %33 ], [ %76, %35 ]
  %40 = getelementptr inbounds [10000 x i32], [10000 x i32]* %4, i64 0, i64 %36
  %41 = bitcast i32* %40 to <4 x i32>*
  %42 = load <4 x i32>, <4 x i32>* %41, align 16, !tbaa !5
  %43 = getelementptr inbounds i32, i32* %40, i64 4
  %44 = bitcast i32* %43 to <4 x i32>*
  %45 = load <4 x i32>, <4 x i32>* %44, align 16, !tbaa !5
  %46 = add <4 x i32> %42, %37
  %47 = add <4 x i32> %45, %38
  %48 = or i64 %36, 8
  %49 = getelementptr inbounds [10000 x i32], [10000 x i32]* %4, i64 0, i64 %48
  %50 = bitcast i32* %49 to <4 x i32>*
  %51 = load <4 x i32>, <4 x i32>* %50, align 16, !tbaa !5
  %52 = getelementptr inbounds i32, i32* %49, i64 4
  %53 = bitcast i32* %52 to <4 x i32>*
  %54 = load <4 x i32>, <4 x i32>* %53, align 16, !tbaa !5
  %55 = add <4 x i32> %51, %46
  %56 = add <4 x i32> %54, %47
  %57 = or i64 %36, 16
  %58 = getelementptr inbounds [10000 x i32], [10000 x i32]* %4, i64 0, i64 %57
  %59 = bitcast i32* %58 to <4 x i32>*
  %60 = load <4 x i32>, <4 x i32>* %59, align 16, !tbaa !5
  %61 = getelementptr inbounds i32, i32* %58, i64 4
  %62 = bitcast i32* %61 to <4 x i32>*
  %63 = load <4 x i32>, <4 x i32>* %62, align 16, !tbaa !5
  %64 = add <4 x i32> %60, %55
  %65 = add <4 x i32> %63, %56
  %66 = or i64 %36, 24
  %67 = getelementptr inbounds [10000 x i32], [10000 x i32]* %4, i64 0, i64 %66
  %68 = bitcast i32* %67 to <4 x i32>*
  %69 = load <4 x i32>, <4 x i32>* %68, align 16, !tbaa !5
  %70 = getelementptr inbounds i32, i32* %67, i64 4
  %71 = bitcast i32* %70 to <4 x i32>*
  %72 = load <4 x i32>, <4 x i32>* %71, align 16, !tbaa !5
  %73 = add <4 x i32> %69, %64
  %74 = add <4 x i32> %72, %65
  %75 = add nuw i64 %36, 32
  %76 = add i64 %39, -4
  %77 = icmp eq i64 %76, 0
  br i1 %77, label %78, label %35, !llvm.loop !9

78:                                               ; preds = %35, %26
  %79 = phi <4 x i32> [ undef, %26 ], [ %73, %35 ]
  %80 = phi <4 x i32> [ undef, %26 ], [ %74, %35 ]
  %81 = phi i64 [ 0, %26 ], [ %75, %35 ]
  %82 = phi <4 x i32> [ zeroinitializer, %26 ], [ %73, %35 ]
  %83 = phi <4 x i32> [ zeroinitializer, %26 ], [ %74, %35 ]
  %84 = icmp eq i64 %31, 0
  br i1 %84, label %101, label %85

85:                                               ; preds = %78, %85
  %86 = phi i64 [ %98, %85 ], [ %81, %78 ]
  %87 = phi <4 x i32> [ %96, %85 ], [ %82, %78 ]
  %88 = phi <4 x i32> [ %97, %85 ], [ %83, %78 ]
  %89 = phi i64 [ %99, %85 ], [ %31, %78 ]
  %90 = getelementptr inbounds [10000 x i32], [10000 x i32]* %4, i64 0, i64 %86
  %91 = bitcast i32* %90 to <4 x i32>*
  %92 = load <4 x i32>, <4 x i32>* %91, align 16, !tbaa !5
  %93 = getelementptr inbounds i32, i32* %90, i64 4
  %94 = bitcast i32* %93 to <4 x i32>*
  %95 = load <4 x i32>, <4 x i32>* %94, align 16, !tbaa !5
  %96 = add <4 x i32> %92, %87
  %97 = add <4 x i32> %95, %88
  %98 = add nuw i64 %86, 8
  %99 = add i64 %89, -1
  %100 = icmp eq i64 %99, 0
  br i1 %100, label %101, label %85, !llvm.loop !12

101:                                              ; preds = %85, %78
  %102 = phi <4 x i32> [ %79, %78 ], [ %96, %85 ]
  %103 = phi <4 x i32> [ %80, %78 ], [ %97, %85 ]
  %104 = add <4 x i32> %103, %102
  %105 = call i32 @llvm.vector.reduce.add.v4i32(<4 x i32> %104)
  %106 = icmp eq i64 %27, %24
  br i1 %106, label %120, label %107

107:                                              ; preds = %23, %101
  %108 = phi i64 [ 0, %23 ], [ %27, %101 ]
  %109 = phi i32 [ 0, %23 ], [ %105, %101 ]
  br label %134

110:                                              ; preds = %12, %110
  %111 = phi i64 [ %114, %110 ], [ 0, %12 ]
  %112 = getelementptr inbounds [10000 x i32], [10000 x i32]* %4, i64 0, i64 %111
  %113 = call i32 (i8*, ...) @__isoc99_scanf(i8* getelementptr inbounds ([3 x i8], [3 x i8]* @.str.2, i64 0, i64 0), i32* nonnull %112)
  %114 = add nuw nsw i64 %111, 1
  %115 = load i32, i32* %2, align 4, !tbaa !5
  %116 = load i32, i32* %3, align 4, !tbaa !5
  %117 = mul nsw i32 %116, %115
  %118 = sext i32 %117 to i64
  %119 = icmp slt i64 %114, %118
  br i1 %119, label %110, label %19, !llvm.loop !14

120:                                              ; preds = %134, %101, %19
  %121 = phi i32 [ 0, %19 ], [ %105, %101 ], [ %139, %134 ]
  %122 = add i32 %20, -1
  %123 = sext i32 %21 to i64
  %124 = add nsw i64 %123, -1
  %125 = icmp sgt i32 %20, 2
  br i1 %125, label %126, label %199

126:                                              ; preds = %120
  %127 = zext i32 %122 to i64
  %128 = add nsw i64 %127, -1
  %129 = add nsw i64 %127, -2
  %130 = and i64 %128, 3
  %131 = icmp ult i64 %129, 3
  br i1 %131, label %180, label %132

132:                                              ; preds = %126
  %133 = and i64 %128, -4
  br label %142

134:                                              ; preds = %107, %134
  %135 = phi i64 [ %140, %134 ], [ %108, %107 ]
  %136 = phi i32 [ %139, %134 ], [ %109, %107 ]
  %137 = getelementptr inbounds [10000 x i32], [10000 x i32]* %4, i64 0, i64 %135
  %138 = load i32, i32* %137, align 4, !tbaa !5
  %139 = add nsw i32 %138, %136
  %140 = add nuw nsw i64 %135, 1
  %141 = icmp eq i64 %140, %24
  br i1 %141, label %120, label %134, !llvm.loop !15

142:                                              ; preds = %142, %132
  %143 = phi i64 [ 1, %132 ], [ %177, %142 ]
  %144 = phi i32 [ %121, %132 ], [ %176, %142 ]
  %145 = phi i64 [ %133, %132 ], [ %178, %142 ]
  %146 = mul nsw i64 %143, %123
  %147 = getelementptr inbounds [10000 x i32], [10000 x i32]* %4, i64 0, i64 %146
  %148 = load i32, i32* %147, align 4, !tbaa !5
  %149 = add nsw i32 %148, %144
  %150 = getelementptr inbounds i32, i32* %147, i64 %124
  %151 = load i32, i32* %150, align 4, !tbaa !5
  %152 = add nsw i32 %149, %151
  %153 = add nuw nsw i64 %143, 1
  %154 = mul nsw i64 %153, %123
  %155 = getelementptr inbounds [10000 x i32], [10000 x i32]* %4, i64 0, i64 %154
  %156 = load i32, i32* %155, align 4, !tbaa !5
  %157 = add nsw i32 %156, %152
  %158 = getelementptr inbounds i32, i32* %155, i64 %124
  %159 = load i32, i32* %158, align 4, !tbaa !5
  %160 = add nsw i32 %157, %159
  %161 = add nuw nsw i64 %143, 2
  %162 = mul nsw i64 %161, %123
  %163 = getelementptr inbounds [10000 x i32], [10000 x i32]* %4, i64 0, i64 %162
  %164 = load i32, i32* %163, align 4, !tbaa !5
  %165 = add nsw i32 %164, %160
  %166 = getelementptr inbounds i32, i32* %163, i64 %124
  %167 = load i32, i32* %166, align 4, !tbaa !5
  %168 = add nsw i32 %165, %167
  %169 = add nuw nsw i64 %143, 3
  %170 = mul nsw i64 %169, %123
  %171 = getelementptr inbounds [10000 x i32], [10000 x i32]* %4, i64 0, i64 %170
  %172 = load i32, i32* %171, align 4, !tbaa !5
  %173 = add nsw i32 %172, %168
  %174 = getelementptr inbounds i32, i32* %171, i64 %124
  %175 = load i32, i32* %174, align 4, !tbaa !5
  %176 = add nsw i32 %173, %175
  %177 = add nuw nsw i64 %143, 4
  %178 = add i64 %145, -4
  %179 = icmp eq i64 %178, 0
  br i1 %179, label %180, label %142, !llvm.loop !17

180:                                              ; preds = %142, %126
  %181 = phi i32 [ undef, %126 ], [ %176, %142 ]
  %182 = phi i64 [ 1, %126 ], [ %177, %142 ]
  %183 = phi i32 [ %121, %126 ], [ %176, %142 ]
  %184 = icmp eq i64 %130, 0
  br i1 %184, label %199, label %185

185:                                              ; preds = %180, %185
  %186 = phi i64 [ %196, %185 ], [ %182, %180 ]
  %187 = phi i32 [ %195, %185 ], [ %183, %180 ]
  %188 = phi i64 [ %197, %185 ], [ %130, %180 ]
  %189 = mul nsw i64 %186, %123
  %190 = getelementptr inbounds [10000 x i32], [10000 x i32]* %4, i64 0, i64 %189
  %191 = load i32, i32* %190, align 4, !tbaa !5
  %192 = add nsw i32 %191, %187
  %193 = getelementptr inbounds i32, i32* %190, i64 %124
  %194 = load i32, i32* %193, align 4, !tbaa !5
  %195 = add nsw i32 %192, %194
  %196 = add nuw nsw i64 %186, 1
  %197 = add i64 %188, -1
  %198 = icmp eq i64 %197, 0
  br i1 %198, label %199, label %185, !llvm.loop !18

199:                                              ; preds = %180, %185, %120
  %200 = phi i32 [ %121, %120 ], [ %181, %180 ], [ %195, %185 ]
  %201 = icmp eq i32 %20, 1
  br i1 %201, label %302, label %202

202:                                              ; preds = %199
  %203 = mul nsw i32 %122, %21
  %204 = sext i32 %203 to i64
  %205 = getelementptr inbounds [10000 x i32], [10000 x i32]* %4, i64 0, i64 %204
  br i1 %22, label %206, label %302

206:                                              ; preds = %202
  %207 = zext i32 %21 to i64
  %208 = icmp ult i32 %21, 8
  br i1 %208, label %291, label %209

209:                                              ; preds = %206
  %210 = and i64 %207, 4294967288
  %211 = insertelement <4 x i32> <i32 poison, i32 0, i32 0, i32 0>, i32 %200, i32 0
  %212 = add nsw i64 %210, -8
  %213 = lshr exact i64 %212, 3
  %214 = add nuw nsw i64 %213, 1
  %215 = and i64 %214, 3
  %216 = icmp ult i64 %212, 24
  br i1 %216, label %262, label %217

217:                                              ; preds = %209
  %218 = and i64 %214, 4611686018427387900
  br label %219

219:                                              ; preds = %219, %217
  %220 = phi i64 [ 0, %217 ], [ %259, %219 ]
  %221 = phi <4 x i32> [ %211, %217 ], [ %257, %219 ]
  %222 = phi <4 x i32> [ zeroinitializer, %217 ], [ %258, %219 ]
  %223 = phi i64 [ %218, %217 ], [ %260, %219 ]
  %224 = getelementptr inbounds i32, i32* %205, i64 %220
  %225 = bitcast i32* %224 to <4 x i32>*
  %226 = load <4 x i32>, <4 x i32>* %225, align 4, !tbaa !5
  %227 = getelementptr inbounds i32, i32* %224, i64 4
  %228 = bitcast i32* %227 to <4 x i32>*
  %229 = load <4 x i32>, <4 x i32>* %228, align 4, !tbaa !5
  %230 = add <4 x i32> %226, %221
  %231 = add <4 x i32> %229, %222
  %232 = or i64 %220, 8
  %233 = getelementptr inbounds i32, i32* %205, i64 %232
  %234 = bitcast i32* %233 to <4 x i32>*
  %235 = load <4 x i32>, <4 x i32>* %234, align 4, !tbaa !5
  %236 = getelementptr inbounds i32, i32* %233, i64 4
  %237 = bitcast i32* %236 to <4 x i32>*
  %238 = load <4 x i32>, <4 x i32>* %237, align 4, !tbaa !5
  %239 = add <4 x i32> %235, %230
  %240 = add <4 x i32> %238, %231
  %241 = or i64 %220, 16
  %242 = getelementptr inbounds i32, i32* %205, i64 %241
  %243 = bitcast i32* %242 to <4 x i32>*
  %244 = load <4 x i32>, <4 x i32>* %243, align 4, !tbaa !5
  %245 = getelementptr inbounds i32, i32* %242, i64 4
  %246 = bitcast i32* %245 to <4 x i32>*
  %247 = load <4 x i32>, <4 x i32>* %246, align 4, !tbaa !5
  %248 = add <4 x i32> %244, %239
  %249 = add <4 x i32> %247, %240
  %250 = or i64 %220, 24
  %251 = getelementptr inbounds i32, i32* %205, i64 %250
  %252 = bitcast i32* %251 to <4 x i32>*
  %253 = load <4 x i32>, <4 x i32>* %252, align 4, !tbaa !5
  %254 = getelementptr inbounds i32, i32* %251, i64 4
  %255 = bitcast i32* %254 to <4 x i32>*
  %256 = load <4 x i32>, <4 x i32>* %255, align 4, !tbaa !5
  %257 = add <4 x i32> %253, %248
  %258 = add <4 x i32> %256, %249
  %259 = add nuw i64 %220, 32
  %260 = add i64 %223, -4
  %261 = icmp eq i64 %260, 0
  br i1 %261, label %262, label %219, !llvm.loop !19

262:                                              ; preds = %219, %209
  %263 = phi <4 x i32> [ undef, %209 ], [ %257, %219 ]
  %264 = phi <4 x i32> [ undef, %209 ], [ %258, %219 ]
  %265 = phi i64 [ 0, %209 ], [ %259, %219 ]
  %266 = phi <4 x i32> [ %211, %209 ], [ %257, %219 ]
  %267 = phi <4 x i32> [ zeroinitializer, %209 ], [ %258, %219 ]
  %268 = icmp eq i64 %215, 0
  br i1 %268, label %285, label %269

269:                                              ; preds = %262, %269
  %270 = phi i64 [ %282, %269 ], [ %265, %262 ]
  %271 = phi <4 x i32> [ %280, %269 ], [ %266, %262 ]
  %272 = phi <4 x i32> [ %281, %269 ], [ %267, %262 ]
  %273 = phi i64 [ %283, %269 ], [ %215, %262 ]
  %274 = getelementptr inbounds i32, i32* %205, i64 %270
  %275 = bitcast i32* %274 to <4 x i32>*
  %276 = load <4 x i32>, <4 x i32>* %275, align 4, !tbaa !5
  %277 = getelementptr inbounds i32, i32* %274, i64 4
  %278 = bitcast i32* %277 to <4 x i32>*
  %279 = load <4 x i32>, <4 x i32>* %278, align 4, !tbaa !5
  %280 = add <4 x i32> %276, %271
  %281 = add <4 x i32> %279, %272
  %282 = add nuw i64 %270, 8
  %283 = add i64 %273, -1
  %284 = icmp eq i64 %283, 0
  br i1 %284, label %285, label %269, !llvm.loop !20

285:                                              ; preds = %269, %262
  %286 = phi <4 x i32> [ %263, %262 ], [ %280, %269 ]
  %287 = phi <4 x i32> [ %264, %262 ], [ %281, %269 ]
  %288 = add <4 x i32> %287, %286
  %289 = call i32 @llvm.vector.reduce.add.v4i32(<4 x i32> %288)
  %290 = icmp eq i64 %210, %207
  br i1 %290, label %302, label %291

291:                                              ; preds = %206, %285
  %292 = phi i64 [ 0, %206 ], [ %210, %285 ]
  %293 = phi i32 [ %200, %206 ], [ %289, %285 ]
  br label %294

294:                                              ; preds = %291, %294
  %295 = phi i64 [ %300, %294 ], [ %292, %291 ]
  %296 = phi i32 [ %299, %294 ], [ %293, %291 ]
  %297 = getelementptr inbounds i32, i32* %205, i64 %295
  %298 = load i32, i32* %297, align 4, !tbaa !5
  %299 = add nsw i32 %298, %296
  %300 = add nuw nsw i64 %295, 1
  %301 = icmp eq i64 %300, %207
  br i1 %301, label %302, label %294, !llvm.loop !21

302:                                              ; preds = %294, %285, %202, %199
  %303 = phi i32 [ %200, %199 ], [ %200, %202 ], [ %289, %285 ], [ %299, %294 ]
  %304 = call i32 (i8*, ...) @printf(i8* nonnull dereferenceable(1) getelementptr inbounds ([4 x i8], [4 x i8]* @.str, i64 0, i64 0), i32 %303)
  %305 = add nuw nsw i32 %13, 1
  %306 = load i32, i32* %1, align 4, !tbaa !5
  %307 = icmp slt i32 %13, %306
  br i1 %307, label %12, label %308, !llvm.loop !22

308:                                              ; preds = %302, %0
  call void @llvm.lifetime.end.p0i8(i64 40000, i8* nonnull %5) #5
  call void @llvm.lifetime.end.p0i8(i64 4, i8* nonnull %8) #5
  call void @llvm.lifetime.end.p0i8(i64 4, i8* nonnull %7) #5
  call void @llvm.lifetime.end.p0i8(i64 4, i8* nonnull %6) #5
  ret i32 0
}

; Function Attrs: argmemonly mustprogress nofree nosync nounwind willreturn
declare void @llvm.lifetime.start.p0i8(i64 immarg, i8* nocapture) #1

; Function Attrs: nofree nounwind
declare noundef i32 @__isoc99_scanf(i8* nocapture noundef readonly, ...) local_unnamed_addr #2

; Function Attrs: nofree nounwind
declare noundef i32 @printf(i8* nocapture noundef readonly, ...) local_unnamed_addr #2

; Function Attrs: argmemonly mustprogress nofree nosync nounwind willreturn
declare void @llvm.lifetime.end.p0i8(i64 immarg, i8* nocapture) #1

; Function Attrs: argmemonly nofree nounwind willreturn writeonly
declare void @llvm.memset.p0i8.i64(i8* nocapture writeonly, i8, i64, i1 immarg) #3

; Function Attrs: nofree nosync nounwind readnone willreturn
declare i32 @llvm.vector.reduce.add.v4i32(<4 x i32>) #4


!llvm.module.flags = !{!0, !1, !2, !3}
!llvm.ident = !{!4}

!0 = !{i32 1, !"wchar_size", i32 4}
!1 = !{i32 7, !"PIC Level", i32 2}
!2 = !{i32 7, !"PIE Level", i32 2}
!3 = !{i32 7, !"uwtable", i32 1}
!4 = !{!"clang version 13.0.0"}
!5 = !{!6, !6, i64 0}
!6 = !{!"int", !7, i64 0}
!7 = !{!"omnipotent char", !8, i64 0}
!8 = !{!"Simple C/C++ TBAA"}
!9 = distinct !{!9, !10, !11}
!10 = !{!"llvm.loop.mustprogress"}
!11 = !{!"llvm.loop.isvectorized", i32 1}
!12 = distinct !{!12, !13}
!13 = !{!"llvm.loop.unroll.disable"}
!14 = distinct !{!14, !10}
!15 = distinct !{!15, !10, !16, !11}
!16 = !{!"llvm.loop.unroll.runtime.disable"}
!17 = distinct !{!17, !10}
!18 = distinct !{!18, !13}
!19 = distinct !{!19, !10, !11}
!20 = distinct !{!20, !13}
!21 = distinct !{!21, !10, !16, !11}
!22 = distinct !{!22, !10}
